target datalayout = "e-m:e-p270:32:32-p271:32:32-p272:64:64-i64:64-i128:128-f80:128-n8:16:32:64-S128"
target triple = "x86_64-unknown-linux-gnu"

%"class.std::set.0" = type { %"class.std::_Rb_tree.1" }
%"class.std::_Rb_tree.1" = type { %"struct.std::_Rb_tree<QuantLib::Observer *, QuantLib::Observer *, std::_Identity<QuantLib::Observer *>, std::less<QuantLib::Observer *>>::_Rb_tree_impl" }
%"struct.std::_Rb_tree<QuantLib::Observer *, QuantLib::Observer *, std::_Identity<QuantLib::Observer *>, std::less<QuantLib::Observer *>>::_Rb_tree_impl" = type { [8 x i8], %"struct.std::_Rb_tree_header" }
%"struct.std::_Rb_tree_header" = type { %"struct.std::_Rb_tree_node_base", i64 }
%"struct.std::_Rb_tree_node_base" = type { i32, ptr, ptr, ptr }
%"class.std::set" = type { %"class.std::_Rb_tree" }
%"class.std::_Rb_tree" = type { %"struct.std::_Rb_tree<boost::shared_ptr<QuantLib::Observable>, boost::shared_ptr<QuantLib::Observable>, std::_Identity<boost::shared_ptr<QuantLib::Observable>>, std::less<boost::shared_ptr<QuantLib::Observable>>>::_Rb_tree_impl" }
%"struct.std::_Rb_tree<boost::shared_ptr<QuantLib::Observable>, boost::shared_ptr<QuantLib::Observable>, std::_Identity<boost::shared_ptr<QuantLib::Observable>>, std::less<boost::shared_ptr<QuantLib::Observable>>>::_Rb_tree_impl" = type { [8 x i8], %"struct.std::_Rb_tree_header" }
%"class.boost::detail::shared_count" = type { ptr }
%"class.QuantLib::Observable" = type { ptr, %"class.std::set.0" }
%"class.QuantLib::Observer" = type { ptr, %"class.std::set" }
%"class.QuantLib::CashFlow.base" = type <{ %"class.QuantLib::Event.base", %"class.QuantLib::LazyObject.base" }>
%"class.QuantLib::Event.base" = type { ptr }
%"class.QuantLib::LazyObject.base" = type <{ ptr, i8, i8, i8, i8 }>
%"class.QuantLib::Date" = type { i64 }
%"class.QuantLib::DayCounter" = type { %"class.boost::shared_ptr.15" }
%"class.boost::shared_ptr.15" = type { ptr, %"class.boost::detail::shared_count" }
%"class.QuantLib::CappedFlooredYoYInflationCoupon" = type { %"class.QuantLib::YoYInflationCoupon.base", %"class.boost::shared_ptr.32", i8, i8, double, double, %"class.QuantLib::Observable", %"class.QuantLib::Observer" }
%"class.QuantLib::YoYInflationCoupon.base" = type { %"class.QuantLib::InflationCoupon.base", %"class.boost::shared_ptr.31", double, double }
%"class.QuantLib::InflationCoupon.base" = type { %"class.QuantLib::Coupon.base", %"class.boost::shared_ptr.29", %"class.boost::shared_ptr.30", %"class.QuantLib::Period", %"class.QuantLib::DayCounter", i32, double }
%"class.QuantLib::Coupon.base" = type { %"class.QuantLib::CashFlow.base", %"class.QuantLib::Date", double, %"class.QuantLib::Date", %"class.QuantLib::Date", %"class.QuantLib::Date", %"class.QuantLib::Date", %"class.QuantLib::Date", double }
%"class.boost::shared_ptr.29" = type { ptr, %"class.boost::detail::shared_count" }
%"class.boost::shared_ptr.30" = type { ptr, %"class.boost::detail::shared_count" }
%"class.QuantLib::Period" = type { i32, i32 }
%"class.boost::shared_ptr.31" = type { ptr, %"class.boost::detail::shared_count" }
%"class.boost::shared_ptr.32" = type { ptr, %"class.boost::detail::shared_count" }
%"class.QuantLib::YoYInflationCoupon" = type { %"class.QuantLib::InflationCoupon.base", %"class.boost::shared_ptr.31", double, double, %"class.QuantLib::Observable", %"class.QuantLib::Observer" }

; Function Attrs: mustprogress nounwind uwtable
define linkonce_odr noundef double @_ZNK8QuantLib18YoYInflationCoupon7gearingEv(ptr noundef nonnull align 8 dereferenceable(192) %this) #1 comdat align 2 {
entry:
  %this.addr = alloca ptr, align 8
  store ptr %this, ptr %this.addr, align 8, !tbaa !3
  %this1 = load ptr, ptr %this.addr, align 8
  %gearing_ = getelementptr inbounds nuw %"class.QuantLib::YoYInflationCoupon", ptr %this1, i32 0, i32 2
  %0 = load double, ptr %gearing_, align 8, !tbaa !46
  ret double %0
}

; Function Attrs: mustprogress nounwind uwtable
define linkonce_odr noundef double @_ZNK8QuantLib18YoYInflationCoupon6spreadEv(ptr noundef nonnull align 8 dereferenceable(192) %this) #1 comdat align 2 {
entry:
  %this.addr = alloca ptr, align 8
  store ptr %this, ptr %this.addr, align 8, !tbaa !3
  %this1 = load ptr, ptr %this.addr, align 8
  %spread_ = getelementptr inbounds nuw %"class.QuantLib::YoYInflationCoupon", ptr %this1, i32 0, i32 3
  %0 = load double, ptr %spread_, align 8, !tbaa !54
  ret double %0
}

; Function Attrs: mustprogress uwtable
define noundef double @_ZNK8QuantLib31CappedFlooredYoYInflationCoupon14effectiveFloorEv(ptr noundef nonnull align 8 dereferenceable(232) %this) #2 align 2 {
entry:
  %this.addr = alloca ptr, align 8
  store ptr %this, ptr %this.addr, align 8, !tbaa !3
  %this1 = load ptr, ptr %this.addr, align 8
  %floor_ = getelementptr inbounds nuw %"class.QuantLib::CappedFlooredYoYInflationCoupon", ptr %this1, i32 0, i32 5
  %0 = load double, ptr %floor_, align 8, !tbaa !48
  %call = call noundef double @_ZNK8QuantLib18YoYInflationCoupon6spreadEv(ptr noundef nonnull align 8 dereferenceable(192) %this1)
  %sub = fsub double %0, %call
  %call2 = call noundef double @_ZNK8QuantLib18YoYInflationCoupon7gearingEv(ptr noundef nonnull align 8 dereferenceable(192) %this1)
  %div = fdiv double %sub, %call2
  ret double %div
}